target datalayout = "e-m:e-p270:32:32-p271:32:32-p272:64:64-i64:64-i128:128-f80:128-n8:16:32:64-S128"
target triple = "x86_64-pc-linux-gnu"

%struct._stritem = type { ptr, ptr, ptr, i32, i32, i32, i16, i16, i8, i8, [0 x %union.anon] }
%union.anon = type { i64 }

@heads = internal global [256 x ptr] zeroinitializer, align 16
@tails = internal global [256 x ptr] zeroinitializer, align 16

; Function Attrs: nounwind uwtable
define dso_local void @do_item_linktail_q(ptr noundef %0) #0 {
  %2 = alloca ptr, align 8
  %3 = alloca ptr, align 8
  %4 = alloca ptr, align 8
  store ptr %0, ptr %2, align 8, !tbaa !16
  call void @llvm.lifetime.start.p0(i64 8, ptr %3) #9
  call void @llvm.lifetime.start.p0(i64 8, ptr %4) #9
  %5 = load ptr, ptr %2, align 8, !tbaa !16
  %6 = getelementptr inbounds nuw %struct._stritem, ptr %5, i32 0, i32 8
  %7 = load i8, ptr %6, align 8, !tbaa !30
  %8 = zext i8 %7 to i64
  %9 = getelementptr inbounds nuw [256 x ptr], ptr @heads, i64 0, i64 %8
  store ptr %9, ptr %3, align 8, !tbaa !70
  %10 = load ptr, ptr %2, align 8, !tbaa !16
  %11 = getelementptr inbounds nuw %struct._stritem, ptr %10, i32 0, i32 8
  %12 = load i8, ptr %11, align 8, !tbaa !30
  %13 = zext i8 %12 to i64
  %14 = getelementptr inbounds nuw [256 x ptr], ptr @tails, i64 0, i64 %13
  store ptr %14, ptr %4, align 8, !tbaa !70
  %15 = load ptr, ptr %4, align 8, !tbaa !70
  %16 = load ptr, ptr %15, align 8, !tbaa !16
  %17 = load ptr, ptr %2, align 8, !tbaa !16
  %18 = getelementptr inbounds nuw %struct._stritem, ptr %17, i32 0, i32 1
  store ptr %16, ptr %18, align 8, !tbaa !16
  %19 = load ptr, ptr %2, align 8, !tbaa !16
  %20 = getelementptr inbounds nuw %struct._stritem, ptr %19, i32 0, i32 0
  store ptr null, ptr %20, align 8, !tbaa !16
  %21 = load ptr, ptr %2, align 8, !tbaa !16
  %22 = getelementptr inbounds nuw %struct._stritem, ptr %21, i32 0, i32 1
  %23 = load ptr, ptr %22, align 8, !tbaa !16
  %24 = icmp ne ptr %23, null
  br i1 %24, label %25, label %31

25:                                               ; preds = %1
  %26 = load ptr, ptr %2, align 8, !tbaa !16
  %27 = load ptr, ptr %2, align 8, !tbaa !16
  %28 = getelementptr inbounds nuw %struct._stritem, ptr %27, i32 0, i32 1
  %29 = load ptr, ptr %28, align 8, !tbaa !16
  %30 = getelementptr inbounds nuw %struct._stritem, ptr %29, i32 0, i32 0
  store ptr %26, ptr %30, align 8, !tbaa !16
  br label %31

31:                                               ; preds = %25, %1
  %32 = load ptr, ptr %2, align 8, !tbaa !16
  %33 = load ptr, ptr %4, align 8, !tbaa !70
  store ptr %32, ptr %33, align 8, !tbaa !16
  %34 = load ptr, ptr %3, align 8, !tbaa !70
  %35 = load ptr, ptr %34, align 8, !tbaa !16
  %36 = icmp eq ptr %35, null
  br i1 %36, label %37, label %40

37:                                               ; preds = %31
  %38 = load ptr, ptr %2, align 8, !tbaa !16
  %39 = load ptr, ptr %3, align 8, !tbaa !70
  store ptr %38, ptr %39, align 8, !tbaa !16
  br label %40

40:                                               ; preds = %37, %31
  call void @llvm.lifetime.end.p0(i64 8, ptr %4) #9
  call void @llvm.lifetime.end.p0(i64 8, ptr %3) #9
  ret void
}