; Function Attrs: mustprogress nofree norecurse nosync nounwind willreturn memory(readwrite, inaccessiblemem: none) uwtable
define dso_local void @do_item_linktail_q(ptr noundef initializes((0, 16)) %0) local_unnamed_addr #9 {
  %2 = getelementptr inbounds nuw i8, ptr %0, i64 40
  %3 = load i8, ptr %2, align 8, !tbaa !30
  %4 = zext i8 %3 to i64
  %5 = getelementptr inbounds nuw [256 x ptr], ptr @heads, i64 0, i64 %4
  %6 = getelementptr inbounds nuw [256 x ptr], ptr @tails, i64 0, i64 %4
  %7 = load ptr, ptr %6, align 8, !tbaa !28
  %8 = getelementptr inbounds nuw i8, ptr %0, i64 8
  store ptr %7, ptr %8, align 8, !tbaa !28
  store ptr null, ptr %0, align 8, !tbaa !28
  %.not = icmp eq ptr %7, null
  br i1 %.not, label %10, label %9

9:                                                ; preds = %1
  store ptr %0, ptr %7, align 8, !tbaa !28
  br label %10

10:                                               ; preds = %9, %1
  store ptr %0, ptr %6, align 8, !tbaa !28
  %11 = load ptr, ptr %5, align 8, !tbaa !28
  %12 = icmp eq ptr %11, null
  br i1 %12, label %13, label %14

13:                                               ; preds = %10
  store ptr %0, ptr %5, align 8, !tbaa !28
  br label %14

14:                                               ; preds = %13, %10
  ret void
}